; Function Attrs: mustprogress nofree norecurse nosync nounwind memory(readwrite, inaccessiblemem: none) uwtable
define void @_ZN5faiss24RangeSearchPartialResult11copy_resultEb(ptr nocapture noundef nonnull readonly align 8 dereferenceable(72) %0, i1 noundef zeroext %1) local_unnamed_addr #12 align 2 {
  %3 = getelementptr inbounds i8, ptr %0, i64 48
  %4 = getelementptr inbounds i8, ptr %0, i64 56
  %5 = load ptr, ptr %4, align 8
  %6 = load ptr, ptr %3, align 8
  %.not = icmp eq ptr %5, %6
  br i1 %.not, label %._crit_edge, label %.lr.ph

.lr.ph:                                           ; preds = %2
  %7 = getelementptr inbounds i8, ptr %0, i64 40
  %8 = getelementptr inbounds i8, ptr %0, i64 8
  br label %9

9:                                                ; preds = %.lr.ph, %53
  %indvars.iv = phi i64 [ 0, %.lr.ph ], [ %indvars.iv.next, %53 ]
  %10 = phi ptr [ %6, %.lr.ph ], [ %57, %53 ]
  %.015 = phi i64 [ 0, %.lr.ph ], [ %55, %53 ]
  %11 = getelementptr inbounds %"struct.faiss::RangeQueryResult", ptr %10, i64 %indvars.iv
  %12 = getelementptr inbounds i8, ptr %11, i64 8
  %13 = load i64, ptr %12, align 8
  %.not27.i = icmp eq i64 %13, 0
  br i1 %.not27.i, label %_ZN5faiss10BufferList10copy_rangeEmmPlPf.exit, label %.lr.ph.i

.lr.ph.i:                                         ; preds = %9
  %14 = load ptr, ptr %7, align 8
  %15 = getelementptr inbounds i8, ptr %14, i64 32
  %16 = load ptr, ptr %15, align 8
  %17 = getelementptr inbounds i8, ptr %14, i64 16
  %18 = load ptr, ptr %17, align 8
  %19 = load i64, ptr %11, align 8
  %20 = getelementptr inbounds i64, ptr %18, i64 %19
  %21 = load i64, ptr %20, align 8
  %22 = getelementptr inbounds float, ptr %16, i64 %21
  %23 = getelementptr inbounds i8, ptr %14, i64 24
  %24 = load ptr, ptr %23, align 8
  %25 = getelementptr inbounds i64, ptr %24, i64 %21
  %26 = load i64, ptr %0, align 8
  %27 = udiv i64 %.015, %26
  %28 = mul i64 %27, %26
  %.recomposed = urem i64 %.015, %26
  br label %29

29:                                               ; preds = %29, %.lr.ph.i
  %.032.i = phi i64 [ %.recomposed, %.lr.ph.i ], [ 0, %29 ]
  %.02231.i = phi i64 [ %13, %.lr.ph.i ], [ %44, %29 ]
  %.02330.i = phi ptr [ %25, %.lr.ph.i ], [ %41, %29 ]
  %.02429.i = phi i64 [ %27, %.lr.ph.i ], [ %43, %29 ]
  %.02528.i = phi ptr [ %22, %.lr.ph.i ], [ %42, %29 ]
  %30 = add i64 %.02231.i, %.032.i
  %31 = load i64, ptr %0, align 8
  %32 = icmp ult i64 %30, %31
  %33 = sub i64 %31, %.032.i
  %34 = select i1 %32, i64 %.02231.i, i64 %33
  %35 = load ptr, ptr %8, align 8
  %36 = getelementptr inbounds %"struct.faiss::BufferList::Buffer", ptr %35, i64 %.02429.i
  %.sroa.0.0.copyload.i = load ptr, ptr %36, align 8
  %.sroa.2.0..sroa_idx.i = getelementptr inbounds i8, ptr %36, i64 8
  %.sroa.2.0.copyload.i = load ptr, ptr %.sroa.2.0..sroa_idx.i, align 8
  %37 = getelementptr inbounds i64, ptr %.sroa.0.0.copyload.i, i64 %.032.i
  %38 = shl i64 %34, 3
  tail call void @llvm.memcpy.p0.p0.i64(ptr align 8 %.02330.i, ptr align 8 %37, i64 %38, i1 false)
  %39 = getelementptr inbounds float, ptr %.sroa.2.0.copyload.i, i64 %.032.i
  %40 = shl i64 %34, 2
  tail call void @llvm.memcpy.p0.p0.i64(ptr align 4 %.02528.i, ptr align 4 %39, i64 %40, i1 false)
  %41 = getelementptr inbounds i64, ptr %.02330.i, i64 %34
  %42 = getelementptr inbounds float, ptr %.02528.i, i64 %34
  %43 = add i64 %.02429.i, 1
  %44 = sub i64 %.02231.i, %34
  %.not.i = icmp eq i64 %44, 0
  br i1 %.not.i, label %_ZN5faiss10BufferList10copy_rangeEmmPlPf.exit.loopexit, label %29, !llvm.loop !8

_ZN5faiss10BufferList10copy_rangeEmmPlPf.exit.loopexit: ; preds = %29
  %.pre17.pre = load i64, ptr %12, align 8
  br label %_ZN5faiss10BufferList10copy_rangeEmmPlPf.exit

_ZN5faiss10BufferList10copy_rangeEmmPlPf.exit:    ; preds = %_ZN5faiss10BufferList10copy_rangeEmmPlPf.exit.loopexit, %9
  %.pre17 = phi i64 [ %.pre17.pre, %_ZN5faiss10BufferList10copy_rangeEmmPlPf.exit.loopexit ], [ 0, %9 ]
  br i1 %1, label %45, label %53

45:                                               ; preds = %_ZN5faiss10BufferList10copy_rangeEmmPlPf.exit
  %46 = load ptr, ptr %7, align 8
  %47 = getelementptr inbounds i8, ptr %46, i64 16
  %48 = load ptr, ptr %47, align 8
  %49 = load i64, ptr %11, align 8
  %50 = getelementptr inbounds i64, ptr %48, i64 %49
  %51 = load i64, ptr %50, align 8
  %52 = add i64 %51, %.pre17
  store i64 %52, ptr %50, align 8
  %.pre = load i64, ptr %12, align 8
  br label %53

53:                                               ; preds = %45, %_ZN5faiss10BufferList10copy_rangeEmmPlPf.exit
  %54 = phi i64 [ %.pre, %45 ], [ %.pre17, %_ZN5faiss10BufferList10copy_rangeEmmPlPf.exit ]
  %55 = add i64 %54, %.015
  %indvars.iv.next = add nuw nsw i64 %indvars.iv, 1
  %56 = load ptr, ptr %4, align 8
  %57 = load ptr, ptr %3, align 8
  %58 = ptrtoint ptr %56 to i64
  %59 = ptrtoint ptr %57 to i64
  %60 = sub i64 %58, %59
  %61 = sdiv exact i64 %60, 24
  %62 = icmp ugt i64 %61, %indvars.iv.next
  br i1 %62, label %9, label %._crit_edge, !llvm.loop !10

._crit_edge:                                      ; preds = %53, %2
  ret void
}